target datalayout = "e-m:e-p270:32:32-p271:32:32-p272:64:64-i64:64-i128:128-f80:128-n8:16:32:64-S128"
target triple = "x86_64-pc-linux-gnu"

%struct.AVFormatContext = type { ptr, ptr, ptr, ptr, ptr, i32, i32, ptr, i32, ptr, i32, ptr, ptr, i64, i64, i64, i32, i32, i32, i64, i64, ptr, i32, i32, ptr, i32, i32, i32, i32, ptr, i64, i32, i32, %struct.AVIOInterruptCB, i32, i32, i32, i32, i64, i32, i32, i32, i32, i32, i32, i32, i32, i32, i32, i32, i32, i64, i32, i32, i32, i32, i32, ptr, ptr, ptr, ptr, i32, ptr, ptr, ptr, ptr, i32, ptr, ptr, i64, ptr, ptr, ptr, i64 }
%struct.AVIOInterruptCB = type { ptr, ptr }

@.str = private unnamed_addr constant [30 x i8] c"Assertion %s failed at %s:%d\0A\00", align 1
@.str.2 = private unnamed_addr constant [19 x i8] c"libavformat/seek.c\00", align 1
@.str.14 = private unnamed_addr constant [18 x i8] c"tmp_pos > pos_max\00", align 1

; Function Attrs: nounwind uwtable
define internal i64 @read_timestamp(ptr noundef %0, i32 noundef %1, ptr noundef %2, i64 noundef %3, ptr noundef %4) #0 {
  %6 = alloca ptr, align 8
  %7 = alloca i32, align 4
  %8 = alloca ptr, align 8
  %9 = alloca i64, align 8
  %10 = alloca ptr, align 8
  %11 = alloca i64, align 8
  store ptr %0, ptr %6, align 8, !tbaa !4
  store i32 %1, ptr %7, align 4, !tbaa !13
  store ptr %2, ptr %8, align 8, !tbaa !97
  store i64 %3, ptr %9, align 8, !tbaa !11
  store ptr %4, ptr %10, align 8, !tbaa !99
  call void @llvm.lifetime.start.p0(i64 8, ptr %11) #11
  %12 = load ptr, ptr %10, align 8, !tbaa !99
  %13 = load ptr, ptr %6, align 8, !tbaa !4
  %14 = load i32, ptr %7, align 4, !tbaa !13
  %15 = load ptr, ptr %8, align 8, !tbaa !97
  %16 = load i64, ptr %9, align 8, !tbaa !11
  %17 = call i64 %12(ptr noundef %13, i32 noundef %14, ptr noundef %15, i64 noundef %16)
  store i64 %17, ptr %11, align 8, !tbaa !11
  %18 = load i32, ptr %7, align 4, !tbaa !13
  %19 = icmp sge i32 %18, 0
  br i1 %19, label %20, label %30

20:                                               ; preds = %5
  %21 = load ptr, ptr %6, align 8, !tbaa !4
  %22 = getelementptr inbounds nuw %struct.AVFormatContext, ptr %21, i32 0, i32 7
  %23 = load ptr, ptr %22, align 8, !tbaa !30
  %24 = load i32, ptr %7, align 4, !tbaa !13
  %25 = sext i32 %24 to i64
  %26 = getelementptr inbounds ptr, ptr %23, i64 %25
  %27 = load ptr, ptr %26, align 8, !tbaa !9
  %28 = load i64, ptr %11, align 8, !tbaa !11
  %29 = call i64 @ff_wrap_timestamp(ptr noundef %27, i64 noundef %28)
  store i64 %29, ptr %11, align 8, !tbaa !11
  br label %30

30:                                               ; preds = %20, %5
  %31 = load i64, ptr %11, align 8, !tbaa !11
  call void @llvm.lifetime.end.p0(i64 8, ptr %11) #11
  ret i64 %31
}

; Function Attrs: nounwind uwtable
define i32 @ff_find_last_ts(ptr noundef %0, i32 noundef %1, ptr noundef %2, ptr noundef %3, ptr noundef %4) #0 {
  %6 = alloca i32, align 4
  %7 = alloca ptr, align 8
  %8 = alloca i32, align 4
  %9 = alloca ptr, align 8
  %10 = alloca ptr, align 8
  %11 = alloca ptr, align 8
  %12 = alloca i64, align 8
  %13 = alloca i64, align 8
  %14 = alloca i64, align 8
  %15 = alloca i64, align 8
  %16 = alloca i64, align 8
  %17 = alloca i32, align 4
  %18 = alloca i64, align 8
  %19 = alloca i64, align 8
  store ptr %0, ptr %7, align 8, !tbaa !4
  store i32 %1, ptr %8, align 4, !tbaa !13
  store ptr %2, ptr %9, align 8, !tbaa !97
  store ptr %3, ptr %10, align 8, !tbaa !97
  store ptr %4, ptr %11, align 8, !tbaa !99
  call void @llvm.lifetime.start.p0(i64 8, ptr %12) #11
  store i64 1024, ptr %12, align 8, !tbaa !11
  call void @llvm.lifetime.start.p0(i64 8, ptr %13) #11
  call void @llvm.lifetime.start.p0(i64 8, ptr %14) #11
  call void @llvm.lifetime.start.p0(i64 8, ptr %15) #11
  %20 = load ptr, ptr %7, align 8, !tbaa !4
  %21 = getelementptr inbounds nuw %struct.AVFormatContext, ptr %20, i32 0, i32 4
  %22 = load ptr, ptr %21, align 8, !tbaa !81
  %23 = call i64 @avio_size(ptr noundef %22)
  store i64 %23, ptr %15, align 8, !tbaa !11
  call void @llvm.lifetime.start.p0(i64 8, ptr %16) #11
  %24 = load i64, ptr %15, align 8, !tbaa !11
  %25 = sub nsw i64 %24, 1
  store i64 %25, ptr %16, align 8, !tbaa !11
  br label %26

26:                                               ; preds = %55, %5
  %27 = load i64, ptr %16, align 8, !tbaa !11
  store i64 %27, ptr %13, align 8, !tbaa !11
  %28 = load i64, ptr %16, align 8, !tbaa !11
  %29 = load i64, ptr %12, align 8, !tbaa !11
  %30 = sub nsw i64 %28, %29
  %31 = icmp sgt i64 0, %30
  br i1 %31, label %32, label %33

32:                                               ; preds = %26
  br label %37

33:                                               ; preds = %26
  %34 = load i64, ptr %16, align 8, !tbaa !11
  %35 = load i64, ptr %12, align 8, !tbaa !11
  %36 = sub nsw i64 %34, %35
  br label %37

37:                                               ; preds = %33, %32
  %38 = phi i64 [ 0, %32 ], [ %36, %33 ]
  store i64 %38, ptr %16, align 8, !tbaa !11
  %39 = load ptr, ptr %7, align 8, !tbaa !4
  %40 = load i32, ptr %8, align 4, !tbaa !13
  %41 = load i64, ptr %13, align 8, !tbaa !11
  %42 = load ptr, ptr %11, align 8, !tbaa !99
  %43 = call i64 @read_timestamp(ptr noundef %39, i32 noundef %40, ptr noundef %16, i64 noundef %41, ptr noundef %42)
  store i64 %43, ptr %14, align 8, !tbaa !11
  %44 = load i64, ptr %12, align 8, !tbaa !11
  %45 = load i64, ptr %12, align 8, !tbaa !11
  %46 = add nsw i64 %45, %44
  store i64 %46, ptr %12, align 8, !tbaa !11
  br label %47

47:                                               ; preds = %37
  %48 = load i64, ptr %14, align 8, !tbaa !11
  %49 = icmp eq i64 %48, -9223372036854775808
  br i1 %49, label %50, label %55

50:                                               ; preds = %47
  %51 = load i64, ptr %13, align 8, !tbaa !11
  %52 = mul nsw i64 2, %51
  %53 = load i64, ptr %12, align 8, !tbaa !11
  %54 = icmp sgt i64 %52, %53
  br label %55

55:                                               ; preds = %50, %47
  %56 = phi i1 [ false, %47 ], [ %54, %50 ]
  br i1 %56, label %26, label %57, !llvm.loop !116

57:                                               ; preds = %55
  %58 = load i64, ptr %14, align 8, !tbaa !11
  %59 = icmp eq i64 %58, -9223372036854775808
  br i1 %59, label %60, label %61

60:                                               ; preds = %57
  store i32 -1, ptr %6, align 4
  store i32 1, ptr %17, align 4
  br label %104

61:                                               ; preds = %57
  br label %62

62:                                               ; preds = %90, %61
  call void @llvm.lifetime.start.p0(i64 8, ptr %18) #11
  %63 = load i64, ptr %16, align 8, !tbaa !11
  %64 = add nsw i64 %63, 1
  store i64 %64, ptr %18, align 8, !tbaa !11
  call void @llvm.lifetime.start.p0(i64 8, ptr %19) #11
  %65 = load ptr, ptr %7, align 8, !tbaa !4
  %66 = load i32, ptr %8, align 4, !tbaa !13
  %67 = load ptr, ptr %11, align 8, !tbaa !99
  %68 = call i64 @read_timestamp(ptr noundef %65, i32 noundef %66, ptr noundef %18, i64 noundef 9223372036854775807, ptr noundef %67)
  store i64 %68, ptr %19, align 8, !tbaa !11
  %69 = load i64, ptr %19, align 8, !tbaa !11
  %70 = icmp eq i64 %69, -9223372036854775808
  br i1 %70, label %71, label %72

71:                                               ; preds = %62
  store i32 4, ptr %17, align 4
  br label %88

72:                                               ; preds = %62
  br label %73

73:                                               ; preds = %72
  %74 = load i64, ptr %18, align 8, !tbaa !11
  %75 = load i64, ptr %16, align 8, !tbaa !11
  %76 = icmp sgt i64 %74, %75
  br i1 %76, label %78, label %77

77:                                               ; preds = %73
  call void (ptr, i32, ptr, ...) @av_log(ptr noundef null, i32 noundef 0, ptr noundef @.str, ptr noundef @.str.14, ptr noundef @.str.2, i32 noundef 383)
  call void @abort() #13
  unreachable

78:                                               ; preds = %73
  br label %79

79:                                               ; preds = %78
  br label %80

80:                                               ; preds = %79
  %81 = load i64, ptr %19, align 8, !tbaa !11
  store i64 %81, ptr %14, align 8, !tbaa !11
  %82 = load i64, ptr %18, align 8, !tbaa !11
  store i64 %82, ptr %16, align 8, !tbaa !11
  %83 = load i64, ptr %18, align 8, !tbaa !11
  %84 = load i64, ptr %15, align 8, !tbaa !11
  %85 = icmp sge i64 %83, %84
  br i1 %85, label %86, label %87

86:                                               ; preds = %80
  store i32 4, ptr %17, align 4
  br label %88

87:                                               ; preds = %80
  store i32 0, ptr %17, align 4
  br label %88

88:                                               ; preds = %87, %86, %71
  call void @llvm.lifetime.end.p0(i64 8, ptr %19) #11
  call void @llvm.lifetime.end.p0(i64 8, ptr %18) #11
  %89 = load i32, ptr %17, align 4
  switch i32 %89, label %106 [
    i32 0, label %90
    i32 4, label %91
  ]

90:                                               ; preds = %88
  br label %62

91:                                               ; preds = %88
  %92 = load ptr, ptr %9, align 8, !tbaa !97
  %93 = icmp ne ptr %92, null
  br i1 %93, label %94, label %97

94:                                               ; preds = %91
  %95 = load i64, ptr %14, align 8, !tbaa !11
  %96 = load ptr, ptr %9, align 8, !tbaa !97
  store i64 %95, ptr %96, align 8, !tbaa !11
  br label %97

97:                                               ; preds = %94, %91
  %98 = load ptr, ptr %10, align 8, !tbaa !97
  %99 = icmp ne ptr %98, null
  br i1 %99, label %100, label %103

100:                                              ; preds = %97
  %101 = load i64, ptr %16, align 8, !tbaa !11
  %102 = load ptr, ptr %10, align 8, !tbaa !97
  store i64 %101, ptr %102, align 8, !tbaa !11
  br label %103

103:                                              ; preds = %100, %97
  store i32 0, ptr %6, align 4
  store i32 1, ptr %17, align 4
  br label %104

104:                                              ; preds = %103, %60
  call void @llvm.lifetime.end.p0(i64 8, ptr %16) #11
  call void @llvm.lifetime.end.p0(i64 8, ptr %15) #11
  call void @llvm.lifetime.end.p0(i64 8, ptr %14) #11
  call void @llvm.lifetime.end.p0(i64 8, ptr %13) #11
  call void @llvm.lifetime.end.p0(i64 8, ptr %12) #11
  %105 = load i32, ptr %6, align 4
  ret i32 %105

106:                                              ; preds = %88
  unreachable
}