; Function Attrs: nounwind uwtable
define range(i32 -1, 1) i32 @ff_find_last_ts(ptr noundef %0, i32 noundef %1, ptr noundef writeonly captures(address_is_null) %2, ptr noundef writeonly captures(address_is_null) %3, ptr noundef readonly captures(none) %4) local_unnamed_addr #5 {
  %6 = alloca i64, align 8
  %7 = alloca i64, align 8
  %8 = getelementptr inbounds nuw i8, ptr %0, i64 32
  %9 = load ptr, ptr %8, align 8, !tbaa !66
  %10 = tail call i64 @avio_size(ptr noundef %9) #17
  call void @llvm.lifetime.start.p0(i64 8, ptr nonnull %6) #17
  %11 = add nsw i64 %10, -1
  store i64 %11, ptr %6, align 8, !tbaa !54
  %12 = icmp sgt i32 %1, -1
  %13 = getelementptr inbounds nuw i8, ptr %0, i64 48
  %14 = zext nneg i32 %1 to i64
  br i1 %12, label %read_timestamp.exit.us, label %read_timestamp.exit

read_timestamp.exit.us:                           ; preds = %5, %read_timestamp.exit.us
  %.027.us = phi i64 [ %24, %read_timestamp.exit.us ], [ 1024, %5 ]
  %15 = load i64, ptr %6, align 8, !tbaa !54
  %16 = sub nsw i64 %15, %.027.us
  %17 = call i64 @llvm.smax.i64(i64 %16, i64 0)
  store i64 %17, ptr %6, align 8, !tbaa !54
  %18 = call i64 %4(ptr noundef nonnull %0, i32 noundef %1, ptr noundef nonnull %6, i64 noundef %15) #17
  %19 = load ptr, ptr %13, align 8, !tbaa !24
  %20 = getelementptr inbounds nuw ptr, ptr %19, i64 %14
  %21 = load ptr, ptr %20, align 8, !tbaa !33
  %22 = call i64 @ff_wrap_timestamp(ptr noundef %21, i64 noundef %18) #17
  %23 = icmp eq i64 %22, -9223372036854775808
  %24 = shl nsw i64 %.027.us, 1
  %25 = icmp sgt i64 %15, %.027.us
  %or.cond.us = select i1 %23, i1 %25, i1 false
  br i1 %or.cond.us, label %read_timestamp.exit.us, label %.critedge, !llvm.loop !94

read_timestamp.exit:                              ; preds = %5, %read_timestamp.exit
  %.027 = phi i64 [ %31, %read_timestamp.exit ], [ 1024, %5 ]
  %26 = load i64, ptr %6, align 8, !tbaa !54
  %27 = sub nsw i64 %26, %.027
  %28 = call i64 @llvm.smax.i64(i64 %27, i64 0)
  store i64 %28, ptr %6, align 8, !tbaa !54
  %29 = call i64 %4(ptr noundef nonnull %0, i32 noundef %1, ptr noundef nonnull %6, i64 noundef %26) #17
  %30 = icmp eq i64 %29, -9223372036854775808
  %31 = shl nsw i64 %.027, 1
  %32 = icmp sgt i64 %26, %.027
  %or.cond = select i1 %30, i1 %32, i1 false
  br i1 %or.cond, label %read_timestamp.exit, label %.critedge.thread, !llvm.loop !94

.critedge:                                        ; preds = %read_timestamp.exit.us
  br i1 %23, label %69, label %.preheader.split.us

.critedge.thread:                                 ; preds = %read_timestamp.exit
  br i1 %30, label %69, label %.preheader.split

.preheader.split.us:                              ; preds = %.critedge
  call void @llvm.lifetime.start.p0(i64 8, ptr nonnull %7) #17
  %33 = load i64, ptr %6, align 8, !tbaa !54
  %34 = add nsw i64 %33, 1
  store i64 %34, ptr %7, align 8, !tbaa !54
  %35 = call i64 %4(ptr noundef nonnull %0, i32 noundef %1, ptr noundef nonnull %7, i64 noundef 9223372036854775807) #17
  %36 = load ptr, ptr %13, align 8, !tbaa !24
  %37 = getelementptr inbounds nuw ptr, ptr %36, i64 %14
  %38 = load ptr, ptr %37, align 8, !tbaa !33
  %39 = call i64 @ff_wrap_timestamp(ptr noundef %38, i64 noundef %35) #17
  %40 = icmp eq i64 %39, -9223372036854775808
  br i1 %40, label %.split48.us, label %.lr.ph53

.lr.ph53:                                         ; preds = %.preheader.split.us, %read_timestamp.exit39.us
  %41 = phi i64 [ %51, %read_timestamp.exit39.us ], [ %39, %.preheader.split.us ]
  %42 = load i64, ptr %7, align 8, !tbaa !54
  %43 = load i64, ptr %6, align 8, !tbaa !54
  %44 = icmp sgt i64 %42, %43
  br i1 %44, label %45, label %.split51.us

45:                                               ; preds = %.lr.ph53
  store i64 %42, ptr %6, align 8, !tbaa !54
  %.not.us = icmp slt i64 %42, %10
  br i1 %.not.us, label %read_timestamp.exit39.us, label %.split48.us

read_timestamp.exit39.us:                         ; preds = %45
  call void @llvm.lifetime.end.p0(i64 8, ptr nonnull %7) #17
  call void @llvm.lifetime.start.p0(i64 8, ptr nonnull %7) #17
  %46 = add nsw i64 %42, 1
  store i64 %46, ptr %7, align 8, !tbaa !54
  %47 = call i64 %4(ptr noundef nonnull %0, i32 noundef %1, ptr noundef nonnull %7, i64 noundef 9223372036854775807) #17
  %48 = load ptr, ptr %13, align 8, !tbaa !24
  %49 = getelementptr inbounds nuw ptr, ptr %48, i64 %14
  %50 = load ptr, ptr %49, align 8, !tbaa !33
  %51 = call i64 @ff_wrap_timestamp(ptr noundef %50, i64 noundef %47) #17
  %52 = icmp eq i64 %51, -9223372036854775808
  br i1 %52, label %.split48.us, label %.lr.ph53

.preheader.split:                                 ; preds = %.critedge.thread
  call void @llvm.lifetime.start.p0(i64 8, ptr nonnull %7) #17
  %53 = load i64, ptr %6, align 8, !tbaa !54
  %54 = add nsw i64 %53, 1
  store i64 %54, ptr %7, align 8, !tbaa !54
  %55 = call i64 %4(ptr noundef nonnull %0, i32 noundef %1, ptr noundef nonnull %7, i64 noundef 9223372036854775807) #17
  %56 = icmp eq i64 %55, -9223372036854775808
  br i1 %56, label %.split48.us, label %.lr.ph

.lr.ph:                                           ; preds = %.preheader.split, %read_timestamp.exit39
  %57 = phi i64 [ %63, %read_timestamp.exit39 ], [ %55, %.preheader.split ]
  %58 = load i64, ptr %7, align 8, !tbaa !54
  %59 = load i64, ptr %6, align 8, !tbaa !54
  %60 = icmp sgt i64 %58, %59
  br i1 %60, label %61, label %.split51.us

.split51.us:                                      ; preds = %.lr.ph, %.lr.ph53
  call void (ptr, i32, ptr, ...) @av_log(ptr noundef null, i32 noundef 0, ptr noundef nonnull @.str, ptr noundef nonnull @.str.14, ptr noundef nonnull @.str.2, i32 noundef 383) #17
  call void @abort() #18
  unreachable

61:                                               ; preds = %.lr.ph
  store i64 %58, ptr %6, align 8, !tbaa !54
  %.not = icmp slt i64 %58, %10
  br i1 %.not, label %read_timestamp.exit39, label %.split48.us

read_timestamp.exit39:                            ; preds = %61
  call void @llvm.lifetime.end.p0(i64 8, ptr nonnull %7) #17
  call void @llvm.lifetime.start.p0(i64 8, ptr nonnull %7) #17
  %62 = add nsw i64 %58, 1
  store i64 %62, ptr %7, align 8, !tbaa !54
  %63 = call i64 %4(ptr noundef nonnull %0, i32 noundef %1, ptr noundef nonnull %7, i64 noundef 9223372036854775807) #17
  %64 = icmp eq i64 %63, -9223372036854775808
  br i1 %64, label %.split48.us, label %.lr.ph

.split48.us:                                      ; preds = %read_timestamp.exit39, %61, %45, %read_timestamp.exit39.us, %.preheader.split, %.preheader.split.us
  %.us-phi49 = phi i64 [ %22, %.preheader.split.us ], [ %29, %.preheader.split ], [ %41, %read_timestamp.exit39.us ], [ %41, %45 ], [ %57, %61 ], [ %57, %read_timestamp.exit39 ]
  call void @llvm.lifetime.end.p0(i64 8, ptr nonnull %7) #17
  %.not35 = icmp eq ptr %2, null
  br i1 %.not35, label %66, label %65

65:                                               ; preds = %.split48.us
  store i64 %.us-phi49, ptr %2, align 8, !tbaa !54
  br label %66

66:                                               ; preds = %65, %.split48.us
  %.not36 = icmp eq ptr %3, null
  br i1 %.not36, label %69, label %67

67:                                               ; preds = %66
  %68 = load i64, ptr %6, align 8, !tbaa !54
  store i64 %68, ptr %3, align 8, !tbaa !54
  br label %69

69:                                               ; preds = %.critedge.thread, %66, %67, %.critedge
  %.0 = phi i32 [ -1, %.critedge ], [ 0, %67 ], [ 0, %66 ], [ -1, %.critedge.thread ]
  call void @llvm.lifetime.end.p0(i64 8, ptr nonnull %6) #17
  ret i32 %.0
}